-----BEGIN CERTIFICATE-----
MIICnDCCAgWgAwIBAgIGDQBx4NxxMA0GCSqGSIb3DQEBBQUAMCgxEjAQBgNVBAMM
CW1pdG1wcm94eTESMBAGA1UECgwJbWl0bXByb3h5MB4XDTE1MDQxODE4NTYxMloX
DTE3MDQwOTE4NTYxMlowKDESMBAGA1UEAwwJbWl0bXByb3h5MRIwEAYDVQQKDAlt
aXRtcHJveHkwgZ8wDQYJKoZIhvcNAQEBBQADgY0AMIGJAoGBALs/VE4K6V8+QJHE
juTx0FcAmDPhAa11O6tGQCNs2oPz062C4l0X+f/d2K62nnWrRIOKnU+Sj5/z9BE/
T8E9dCbNVzze4rCBvm6naHH/JD2s7NMzLHVjjOLcEQAKUBt2/NHDKWfYrkKBOZTZ
XxF5FTPL9oCQAm8XfvOmu2kTfSTlAgMBAAGjgdAwgc0wDwYDVR0TAQH/BAUwAwEB
/zARBglghkgBhvhCAQEEBAMCAgQweAYDVR0lBHEwbwYIKwYBBQUHAwEGCCsGAQUF
BwMCBggrBgEFBQcDBAYIKwYBBQUHAwgGCisGAQQBgjcCARUGCisGAQQBgjcCARYG
CisGAQQBgjcKAwEGCisGAQQBgjcKAwMGCisGAQQBgjcKAwQGCWCGSAGG+EIEATAO
BgNVHQ8BAf8EBAMCAQYwHQYDVR0OBBYEFCQmpEoR0ej/fd+tLj0pDrS9482sMA0G
CSqGSIb3DQEBBQUAA4GBALZ6eloU9cARwpT4R7VwxEmx889MLH+934CSOzHPjPeR
IgwmgOkHq41mboVWPvdXZuMZuBEkeYDWlQIUFrJ394Lk8/1LihHa7Kh6KhMd7jIp
JITTKd131J2VMPdboOspJ8yQC+lfmfLm3DqQ7N05EcpGGhVBFg4NNoB2WKOj9Uj0
-----END CERTIFICATE-----
Certificate:
    Data:
        Version: 3 (0x2)
        Serial Number: 14295561722993 (0xd0071e0dc71)
    Signature Algorithm: sha1WithRSAEncryption
        Issuer: CN=mitmproxy, O=mitmproxy
        Validity
            Not Before: Apr 18 18:56:12 2015 GMT
            Not After : Apr  9 18:56:12 2017 GMT
        Subject: CN=mitmproxy, O=mitmproxy
        Subject Public Key Info:
            Public Key Algorithm: rsaEncryption
                Public-Key: (1024 bit)
                Modulus:
                    00:bb:3f:54:4e:0a:e9:5f:3e:40:91:c4:8e:e4:f1:
                    d0:57:00:98:33:e1:01:ad:75:3b:ab:46:40:23:6c:
                    da:83:f3:d3:ad:82:e2:5d:17:f9:ff:dd:d8:ae:b6:
                    9e:75:ab:44:83:8a:9d:4f:92:8f:9f:f3:f4:11:3f:
                    4f:c1:3d:74:26:cd:57:3c:de:e2:b0:81:be:6e:a7:
                    68:71:ff:24:3d:ac:ec:d3:33:2c:75:63:8c:e2:dc:
                    11:00:0a:50:1b:76:fc:d1:c3:29:67:d8:ae:42:81:
                    39:94:d9:5f:11:79:15:33:cb:f6:80:90:02:6f:17:
                    7e:f3:a6:bb:69:13:7d:24:e5
                Exponent: 65537 (0x10001)
        X509v3 extensions:
            X509v3 Basic Constraints: critical
                CA:TRUE
            Netscape Cert Type: 
                SSL CA
            X509v3 Extended Key Usage: 
                TLS Web Server Authentication, TLS Web Client Authentication, E-mail Protection, Time Stamping, Microsoft Individual Code Signing, Microsoft Commercial Code Signing, Microsoft Trust List Signing, Microsoft Server Gated Crypto, Microsoft Encrypted File System, Netscape Server Gated Crypto
            X509v3 Key Usage: critical
                Certificate Sign, CRL Sign
            X509v3 Subject Key Identifier: 
                24:26:A4:4A:11:D1:E8:FF:7D:DF:AD:2E:3D:29:0E:B4:BD:E3:CD:AC
    Signature Algorithm: sha1WithRSAEncryption
         b6:7a:7a:5a:14:f5:c0:11:c2:94:f8:47:b5:70:c4:49:b1:f3:
         cf:4c:2c:7f:bd:df:80:92:3b:31:cf:8c:f7:91:22:0c:26:80:
         e9:07:ab:8d:66:6e:85:56:3e:f7:57:66:e3:19:b8:11:24:79:
         80:d6:95:02:14:16:b2:77:f7:82:e4:f3:fd:4b:8a:11:da:ec:
         a8:7a:2a:13:1d:ee:32:29:24:84:d3:29:dd:77:d4:9d:95:30:
         f7:5b:a0:eb:29:27:cc:90:0b:e9:5f:99:f2:e6:dc:3a:90:ec:
         dd:39:11:ca:46:1a:15:41:16:0e:0d:36:80:76:58:a3:a3:f5:
         48:f4
